target datalayout = "e-m:e-p270:32:32-p271:32:32-p272:64:64-i64:64-i128:128-f80:128-n8:16:32:64-S128"
target triple = "x86_64-pc-linux-gnu"

%struct.strbuf = type { i64, i64, ptr }

@strbuf_slopbuf = external global [0 x i8], align 1
@__const.strbuf_edit_interactively.sb = private unnamed_addr constant %struct.strbuf { i64 0, i64 0, ptr @strbuf_slopbuf }, align 8
@.str.8 = private unnamed_addr constant [3 x i8] c"%s\00", align 1
@.str.9 = private unnamed_addr constant [32 x i8] c"could not open '%s' for writing\00", align 1
@.str.10 = private unnamed_addr constant [24 x i8] c"could not write to '%s'\00", align 1
@.str.11 = private unnamed_addr constant [21 x i8] c"could not close '%s'\00", align 1
@.str.12 = private unnamed_addr constant [20 x i8] c"could not edit '%s'\00", align 1
@.str.20 = private unnamed_addr constant [1 x i8] zeroinitializer, align 1
@git_gettext_enabled = external global i32, align 4
@.str.21 = private unnamed_addr constant [11 x i8] c"./strbuf.h\00", align 1
@.str.22 = private unnamed_addr constant [30 x i8] c"strbuf_setlen() beyond buffer\00", align 1

; Function Attrs: inlinehint nounwind uwtable
define internal i32 @git_has_dos_drive_prefix(ptr noundef %0) #4 {
  %2 = alloca ptr, align 8
  store ptr %0, ptr %2, align 8, !tbaa !4
  ret i32 0
}

; Function Attrs: inlinehint nounwind uwtable
define internal i32 @git_is_dir_sep(i32 noundef %0) #4 {
  %2 = alloca i32, align 4
  store i32 %0, ptr %2, align 4, !tbaa !9
  %3 = load i32, ptr %2, align 4, !tbaa !9
  %4 = icmp eq i32 %3, 47
  %5 = zext i1 %4 to i32
  ret i32 %5
}

; Function Attrs: inlinehint nounwind uwtable
define internal void @strbuf_setlen(ptr noundef %0, i64 noundef %1) #4 {
  %3 = alloca ptr, align 8
  %4 = alloca i64, align 8
  store ptr %0, ptr %3, align 8, !tbaa !15
  store i64 %1, ptr %4, align 8, !tbaa !27
  %5 = load i64, ptr %4, align 8, !tbaa !27
  %6 = load ptr, ptr %3, align 8, !tbaa !15
  %7 = getelementptr inbounds nuw %struct.strbuf, ptr %6, i32 0, i32 0
  %8 = load i64, ptr %7, align 8, !tbaa !28
  %9 = icmp ne i64 %8, 0
  br i1 %9, label %10, label %15

10:                                               ; preds = %2
  %11 = load ptr, ptr %3, align 8, !tbaa !15
  %12 = getelementptr inbounds nuw %struct.strbuf, ptr %11, i32 0, i32 0
  %13 = load i64, ptr %12, align 8, !tbaa !28
  %14 = sub i64 %13, 1
  br label %16

15:                                               ; preds = %2
  br label %16

16:                                               ; preds = %15, %10
  %17 = phi i64 [ %14, %10 ], [ 0, %15 ]
  %18 = icmp ugt i64 %5, %17
  br i1 %18, label %19, label %20

19:                                               ; preds = %16
  call void (ptr, i32, ptr, ...) @BUG_fl(ptr noundef @.str.21, i32 noundef 167, ptr noundef @.str.22) #10
  unreachable

20:                                               ; preds = %16
  %21 = load i64, ptr %4, align 8, !tbaa !27
  %22 = load ptr, ptr %3, align 8, !tbaa !15
  %23 = getelementptr inbounds nuw %struct.strbuf, ptr %22, i32 0, i32 1
  store i64 %21, ptr %23, align 8, !tbaa !26
  %24 = load ptr, ptr %3, align 8, !tbaa !15
  %25 = getelementptr inbounds nuw %struct.strbuf, ptr %24, i32 0, i32 2
  %26 = load ptr, ptr %25, align 8, !tbaa !20
  %27 = icmp ne ptr %26, @strbuf_slopbuf
  br i1 %27, label %28, label %34

28:                                               ; preds = %20
  %29 = load ptr, ptr %3, align 8, !tbaa !15
  %30 = getelementptr inbounds nuw %struct.strbuf, ptr %29, i32 0, i32 2
  %31 = load ptr, ptr %30, align 8, !tbaa !20
  %32 = load i64, ptr %4, align 8, !tbaa !27
  %33 = getelementptr inbounds nuw i8, ptr %31, i64 %32
  store i8 0, ptr %33, align 1, !tbaa !17
  br label %35

34:                                               ; preds = %20
  br label %35

35:                                               ; preds = %34, %28
  ret void
}

; Function Attrs: inlinehint nounwind uwtable
define internal i32 @const_error() #4 {
  ret i32 -1
}

; Function Attrs: inlinehint nounwind uwtable
define internal ptr @_(ptr noundef %0) #4 {
  %2 = alloca ptr, align 8
  %3 = alloca ptr, align 8
  store ptr %0, ptr %3, align 8, !tbaa !4
  %4 = load ptr, ptr %3, align 8, !tbaa !4
  %5 = load i8, ptr %4, align 1, !tbaa !17
  %6 = icmp ne i8 %5, 0
  br i1 %6, label %8, label %7

7:                                                ; preds = %1
  store ptr @.str.20, ptr %2, align 8
  br label %16

8:                                                ; preds = %1
  %9 = load i32, ptr @git_gettext_enabled, align 4, !tbaa !9
  %10 = icmp ne i32 %9, 0
  br i1 %10, label %13, label %11

11:                                               ; preds = %8
  %12 = load ptr, ptr %3, align 8, !tbaa !4
  store ptr %12, ptr %2, align 8
  br label %16

13:                                               ; preds = %8
  %14 = load ptr, ptr %3, align 8, !tbaa !4
  %15 = call ptr @dcgettext(ptr noundef null, ptr noundef %14, i32 noundef 5) #8
  store ptr %15, ptr %2, align 8
  br label %16

16:                                               ; preds = %13, %11, %7
  %17 = load ptr, ptr %2, align 8
  ret ptr %17
}

; Function Attrs: inlinehint nounwind uwtable
define internal i32 @is_absolute_path(ptr noundef %0) #4 {
  %2 = alloca ptr, align 8
  store ptr %0, ptr %2, align 8, !tbaa !4
  %3 = load ptr, ptr %2, align 8, !tbaa !4
  %4 = getelementptr inbounds i8, ptr %3, i64 0
  %5 = load i8, ptr %4, align 1, !tbaa !17
  %6 = sext i8 %5 to i32
  %7 = call i32 @git_is_dir_sep(i32 noundef %6)
  %8 = icmp ne i32 %7, 0
  br i1 %8, label %13, label %9

9:                                                ; preds = %1
  %10 = load ptr, ptr %2, align 8, !tbaa !4
  %11 = call i32 @git_has_dos_drive_prefix(ptr noundef %10)
  %12 = icmp ne i32 %11, 0
  br label %13

13:                                               ; preds = %9, %1
  %14 = phi i1 [ true, %1 ], [ %12, %9 ]
  %15 = zext i1 %14 to i32
  ret i32 %15
}

; Function Attrs: nounwind uwtable
define dso_local i32 @strbuf_edit_interactively(ptr noundef %0, ptr noundef %1, ptr noundef %2, ptr noundef %3) #0 {
  %5 = alloca ptr, align 8
  %6 = alloca ptr, align 8
  %7 = alloca ptr, align 8
  %8 = alloca ptr, align 8
  %9 = alloca %struct.strbuf, align 8
  %10 = alloca i32, align 4
  %11 = alloca i32, align 4
  store ptr %0, ptr %5, align 8, !tbaa !13
  store ptr %1, ptr %6, align 8, !tbaa !15
  store ptr %2, ptr %7, align 8, !tbaa !4
  store ptr %3, ptr %8, align 8, !tbaa !11
  call void @llvm.lifetime.start.p0(i64 24, ptr %9) #8
  call void @llvm.memcpy.p0.p0.i64(ptr align 8 %9, ptr align 8 @__const.strbuf_edit_interactively.sb, i64 24, i1 false)
  call void @llvm.lifetime.start.p0(i64 4, ptr %10) #8
  call void @llvm.lifetime.start.p0(i64 4, ptr %11) #8
  store i32 0, ptr %11, align 4, !tbaa !9
  %12 = load ptr, ptr %7, align 8, !tbaa !4
  %13 = call i32 @is_absolute_path(ptr noundef %12)
  %14 = icmp ne i32 %13, 0
  br i1 %14, label %20, label %15

15:                                               ; preds = %4
  %16 = load ptr, ptr %5, align 8, !tbaa !13
  %17 = load ptr, ptr %7, align 8, !tbaa !4
  call void (ptr, ptr, ptr, ...) @strbuf_repo_git_path(ptr noundef %9, ptr noundef %16, ptr noundef @.str.8, ptr noundef %17)
  %18 = getelementptr inbounds nuw %struct.strbuf, ptr %9, i32 0, i32 2
  %19 = load ptr, ptr %18, align 8, !tbaa !20
  store ptr %19, ptr %7, align 8, !tbaa !4
  br label %20

20:                                               ; preds = %15, %4
  %21 = load ptr, ptr %7, align 8, !tbaa !4
  %22 = call i32 (ptr, i32, ...) @open64(ptr noundef %21, i32 noundef 577, i32 noundef 438)
  store i32 %22, ptr %10, align 4, !tbaa !9
  %23 = load i32, ptr %10, align 4, !tbaa !9
  %24 = icmp slt i32 %23, 0
  br i1 %24, label %25, label %30

25:                                               ; preds = %20
  %26 = call ptr @_(ptr noundef @.str.9)
  %27 = load ptr, ptr %7, align 8, !tbaa !4
  %28 = call i32 (ptr, ...) @error_errno(ptr noundef %26, ptr noundef %27)
  %29 = call i32 @const_error()
  store i32 %29, ptr %11, align 4, !tbaa !9
  br label %73

30:                                               ; preds = %20
  %31 = load i32, ptr %10, align 4, !tbaa !9
  %32 = load ptr, ptr %6, align 8, !tbaa !15
  %33 = getelementptr inbounds nuw %struct.strbuf, ptr %32, i32 0, i32 2
  %34 = load ptr, ptr %33, align 8, !tbaa !20
  %35 = load ptr, ptr %6, align 8, !tbaa !15
  %36 = getelementptr inbounds nuw %struct.strbuf, ptr %35, i32 0, i32 1
  %37 = load i64, ptr %36, align 8, !tbaa !26
  %38 = call i64 @write_in_full(i32 noundef %31, ptr noundef %34, i64 noundef %37)
  %39 = icmp slt i64 %38, 0
  br i1 %39, label %40, label %47

40:                                               ; preds = %30
  %41 = call ptr @_(ptr noundef @.str.10)
  %42 = load ptr, ptr %7, align 8, !tbaa !4
  %43 = call i32 (ptr, ...) @error_errno(ptr noundef %41, ptr noundef %42)
  %44 = call i32 @const_error()
  store i32 %44, ptr %11, align 4, !tbaa !9
  %45 = load i32, ptr %10, align 4, !tbaa !9
  %46 = call i32 @close(i32 noundef %45)
  br label %72

47:                                               ; preds = %30
  %48 = load i32, ptr %10, align 4, !tbaa !9
  %49 = call i32 @close(i32 noundef %48)
  %50 = icmp slt i32 %49, 0
  br i1 %50, label %51, label %56

51:                                               ; preds = %47
  %52 = call ptr @_(ptr noundef @.str.11)
  %53 = load ptr, ptr %7, align 8, !tbaa !4
  %54 = call i32 (ptr, ...) @error_errno(ptr noundef %52, ptr noundef %53)
  %55 = call i32 @const_error()
  store i32 %55, ptr %11, align 4, !tbaa !9
  br label %71

56:                                               ; preds = %47
  %57 = load ptr, ptr %6, align 8, !tbaa !15
  call void @strbuf_setlen(ptr noundef %57, i64 noundef 0)
  %58 = load ptr, ptr %7, align 8, !tbaa !4
  %59 = load ptr, ptr %6, align 8, !tbaa !15
  %60 = load ptr, ptr %8, align 8, !tbaa !11
  %61 = call i32 @launch_editor(ptr noundef %58, ptr noundef %59, ptr noundef %60)
  %62 = icmp slt i32 %61, 0
  br i1 %62, label %63, label %68

63:                                               ; preds = %56
  %64 = call ptr @_(ptr noundef @.str.12)
  %65 = load ptr, ptr %7, align 8, !tbaa !4
  %66 = call i32 (ptr, ...) @error_errno(ptr noundef %64, ptr noundef %65)
  %67 = call i32 @const_error()
  store i32 %67, ptr %11, align 4, !tbaa !9
  br label %68

68:                                               ; preds = %63, %56
  %69 = load ptr, ptr %7, align 8, !tbaa !4
  %70 = call i32 @unlink(ptr noundef %69) #8
  br label %71

71:                                               ; preds = %68, %51
  br label %72

72:                                               ; preds = %71, %40
  br label %73

73:                                               ; preds = %72, %25
  call void @strbuf_release(ptr noundef %9)
  %74 = load i32, ptr %11, align 4, !tbaa !9
  call void @llvm.lifetime.end.p0(i64 4, ptr %11) #8
  call void @llvm.lifetime.end.p0(i64 4, ptr %10) #8
  call void @llvm.lifetime.end.p0(i64 24, ptr %9) #8
  ret i32 %74
}