; Function Attrs: nounwind uwtable
define dso_local range(i32 -1, 1) i32 @strbuf_edit_interactively(ptr noundef %0, ptr noundef %1, ptr noundef %2, ptr noundef %3) local_unnamed_addr #4 {
  %5 = alloca %struct.strbuf, align 8
  call void @llvm.lifetime.start.p0(i64 24, ptr nonnull %5) #10
  call void @llvm.memcpy.p0.p0.i64(ptr noundef nonnull align 8 dereferenceable(24) %5, ptr noundef nonnull align 8 dereferenceable(24) @__const.launch_specified_editor.realpath, i64 24, i1 false)
  %.val = load i8, ptr %2, align 1, !tbaa !22
  %.not = icmp eq i8 %.val, 47
  br i1 %.not, label %9, label %6

6:                                                ; preds = %4
  call void (ptr, ptr, ptr, ...) @strbuf_repo_git_path(ptr noundef nonnull %5, ptr noundef %0, ptr noundef nonnull @.str.8, ptr noundef nonnull %2) #10
  %7 = getelementptr inbounds nuw i8, ptr %5, i64 16
  %8 = load ptr, ptr %7, align 8, !tbaa !15
  br label %9

9:                                                ; preds = %6, %4
  %.019 = phi ptr [ %2, %4 ], [ %8, %6 ]
  %10 = call i32 (ptr, i32, ...) @open64(ptr noundef %.019, i32 noundef 577, i32 noundef 438) #10
  %11 = icmp slt i32 %10, 0
  br i1 %11, label %12, label %17

12:                                               ; preds = %9
  %13 = load i32, ptr @git_gettext_enabled, align 4, !tbaa !13
  %.not4.i = icmp eq i32 %13, 0
  br i1 %.not4.i, label %_.exit, label %14

14:                                               ; preds = %12
  %15 = call ptr @dcgettext(ptr noundef null, ptr noundef nonnull @.str.9, i32 noundef 5) #10
  br label %_.exit

_.exit:                                           ; preds = %12, %14
  %.0.i = phi ptr [ %15, %14 ], [ @.str.9, %12 ]
  %16 = call i32 (ptr, ...) @error_errno(ptr noundef %.0.i, ptr noundef %.019) #10
  br label %50

17:                                               ; preds = %9
  %18 = getelementptr inbounds nuw i8, ptr %1, i64 16
  %19 = load ptr, ptr %18, align 8, !tbaa !15
  %20 = getelementptr inbounds nuw i8, ptr %1, i64 8
  %21 = load i64, ptr %20, align 8, !tbaa !23
  %22 = call i64 @write_in_full(i32 noundef %10, ptr noundef %19, i64 noundef %21) #10
  %23 = icmp slt i64 %22, 0
  br i1 %23, label %24, label %30

24:                                               ; preds = %17
  %25 = load i32, ptr @git_gettext_enabled, align 4, !tbaa !13
  %.not4.i21 = icmp eq i32 %25, 0
  br i1 %.not4.i21, label %_.exit23, label %26

26:                                               ; preds = %24
  %27 = call ptr @dcgettext(ptr noundef null, ptr noundef nonnull @.str.10, i32 noundef 5) #10
  br label %_.exit23

_.exit23:                                         ; preds = %24, %26
  %.0.i22 = phi ptr [ %27, %26 ], [ @.str.10, %24 ]
  %28 = call i32 (ptr, ...) @error_errno(ptr noundef %.0.i22, ptr noundef %.019) #10
  %29 = call i32 @close(i32 noundef %10) #10
  br label %50

30:                                               ; preds = %17
  %31 = call i32 @close(i32 noundef %10) #10
  %32 = icmp slt i32 %31, 0
  br i1 %32, label %33, label %38

33:                                               ; preds = %30
  %34 = load i32, ptr @git_gettext_enabled, align 4, !tbaa !13
  %.not4.i24 = icmp eq i32 %34, 0
  br i1 %.not4.i24, label %_.exit26, label %35

35:                                               ; preds = %33
  %36 = call ptr @dcgettext(ptr noundef null, ptr noundef nonnull @.str.11, i32 noundef 5) #10
  br label %_.exit26

_.exit26:                                         ; preds = %33, %35
  %.0.i25 = phi ptr [ %36, %35 ], [ @.str.11, %33 ]
  %37 = call i32 (ptr, ...) @error_errno(ptr noundef %.0.i25, ptr noundef %.019) #10
  br label %50

38:                                               ; preds = %30
  store i64 0, ptr %20, align 8, !tbaa !23
  %39 = load ptr, ptr %18, align 8, !tbaa !15
  %.not9.i = icmp eq ptr %39, @strbuf_slopbuf
  br i1 %.not9.i, label %strbuf_setlen.exit, label %40

40:                                               ; preds = %38
  store i8 0, ptr %39, align 1, !tbaa !22
  br label %strbuf_setlen.exit

strbuf_setlen.exit:                               ; preds = %38, %40
  %41 = call i32 @launch_editor(ptr noundef %.019, ptr noundef nonnull %1, ptr noundef %3)
  %42 = icmp slt i32 %41, 0
  br i1 %42, label %43, label %48

43:                                               ; preds = %strbuf_setlen.exit
  %44 = load i32, ptr @git_gettext_enabled, align 4, !tbaa !13
  %.not4.i27 = icmp eq i32 %44, 0
  br i1 %.not4.i27, label %_.exit29, label %45

45:                                               ; preds = %43
  %46 = call ptr @dcgettext(ptr noundef null, ptr noundef nonnull @.str.12, i32 noundef 5) #10
  br label %_.exit29

_.exit29:                                         ; preds = %43, %45
  %.0.i28 = phi ptr [ %46, %45 ], [ @.str.12, %43 ]
  %47 = call i32 (ptr, ...) @error_errno(ptr noundef %.0.i28, ptr noundef %.019) #10
  br label %48

48:                                               ; preds = %_.exit29, %strbuf_setlen.exit
  %.1 = phi i32 [ -1, %_.exit29 ], [ 0, %strbuf_setlen.exit ]
  %49 = call i32 @unlink(ptr noundef %.019) #10
  br label %50

50:                                               ; preds = %_.exit23, %48, %_.exit26, %_.exit
  %.0 = phi i32 [ -1, %_.exit ], [ -1, %_.exit23 ], [ -1, %_.exit26 ], [ %.1, %48 ]
  call void @strbuf_release(ptr noundef nonnull %5) #10
  call void @llvm.lifetime.end.p0(i64 24, ptr nonnull %5) #10
  ret i32 %.0
}